target datalayout = "e-m:e-p270:32:32-p271:32:32-p272:64:64-i64:64-i128:128-f80:128-n8:16:32:64-S128"
target triple = "x86_64-unknown-linux-gnu"

%"class.datalog::verbose_action" = type { i32, ptr }
%class.stopwatch = type <{ %"class.std::chrono::time_point", %"class.std::chrono::duration", i8, [7 x i8] }>
%"class.std::chrono::time_point" = type { %"class.std::chrono::duration" }
%"class.std::chrono::duration" = type { i64 }

@.str = private unnamed_addr constant [4 x i8] c"...\00", align 1

; Function Attrs: noreturn nounwind uwtable
define linkonce_odr hidden void @__clang_call_terminate(ptr noundef %0) #6 comdat {
  %2 = call ptr @__cxa_begin_catch(ptr %0) #3
  call void @_ZSt9terminatev() #14
  unreachable
}

; Function Attrs: mustprogress nounwind uwtable
define linkonce_odr hidden void @_ZNSt6chrono8durationIlSt5ratioILl1ELl1000000000EEEC2IlvEERKT_(ptr noundef nonnull align 8 dereferenceable(8) %this, ptr noundef nonnull align 8 dereferenceable(8) %__rep) unnamed_addr #5 comdat align 2 {
entry:
  %this.addr = alloca ptr, align 8
  %__rep.addr = alloca ptr, align 8
  store ptr %this, ptr %this.addr, align 8
  store ptr %__rep, ptr %__rep.addr, align 8
  %this1 = load ptr, ptr %this.addr, align 8
  %__r = getelementptr inbounds %"class.std::chrono::duration", ptr %this1, i32 0, i32 0
  %0 = load ptr, ptr %__rep.addr, align 8
  %1 = load i64, ptr %0, align 8
  store i64 %1, ptr %__r, align 8
  ret void
}

; Function Attrs: mustprogress nounwind uwtable
define linkonce_odr hidden noundef i64 @_ZNSt6chrono15duration_valuesIlE4zeroEv() #5 comdat align 2 {
entry:
  ret i64 0
}

; Function Attrs: mustprogress nounwind uwtable
define linkonce_odr hidden i64 @_ZNSt6chrono8durationIlSt5ratioILl1ELl1000000000EEE4zeroEv() #5 comdat align 2 personality ptr @__gxx_personality_v0 {
entry:
  %retval = alloca %"class.std::chrono::duration", align 8
  %ref.tmp = alloca i64, align 8
  %call = call noundef i64 @_ZNSt6chrono15duration_valuesIlE4zeroEv() #3
  store i64 %call, ptr %ref.tmp, align 8
  invoke void @_ZNSt6chrono8durationIlSt5ratioILl1ELl1000000000EEEC2IlvEERKT_(ptr noundef nonnull align 8 dereferenceable(8) %retval, ptr noundef nonnull align 8 dereferenceable(8) %ref.tmp)
          to label %invoke.cont unwind label %terminate.lpad

invoke.cont:                                      ; preds = %entry
  %coerce.dive = getelementptr inbounds %"class.std::chrono::duration", ptr %retval, i32 0, i32 0
  %0 = load i64, ptr %coerce.dive, align 8
  ret i64 %0

terminate.lpad:                                   ; preds = %entry
  %1 = landingpad { ptr, i32 }
          catch ptr null
  %2 = extractvalue { ptr, i32 } %1, 0
  call void @__clang_call_terminate(ptr %2) #14
  unreachable
}

; Function Attrs: mustprogress nounwind uwtable
define linkonce_odr hidden i64 @_ZN9stopwatch3getEv() #5 comdat align 2 {
entry:
  %retval = alloca %"class.std::chrono::time_point", align 8
  %call = call i64 @_ZNSt6chrono3_V212steady_clock3nowEv() #3
  %coerce.dive = getelementptr inbounds %"class.std::chrono::time_point", ptr %retval, i32 0, i32 0
  %coerce.dive1 = getelementptr inbounds %"class.std::chrono::duration", ptr %coerce.dive, i32 0, i32 0
  store i64 %call, ptr %coerce.dive1, align 8
  %coerce.dive2 = getelementptr inbounds %"class.std::chrono::time_point", ptr %retval, i32 0, i32 0
  %coerce.dive3 = getelementptr inbounds %"class.std::chrono::duration", ptr %coerce.dive2, i32 0, i32 0
  %0 = load i64, ptr %coerce.dive3, align 8
  ret i64 %0
}

; Function Attrs: mustprogress nounwind uwtable
define linkonce_odr hidden void @_ZN9stopwatch5resetEv(ptr noundef nonnull align 8 dereferenceable(17) %this) #5 comdat align 2 {
entry:
  %this.addr = alloca ptr, align 8
  %ref.tmp = alloca %"class.std::chrono::duration", align 8
  store ptr %this, ptr %this.addr, align 8
  %this1 = load ptr, ptr %this.addr, align 8
  %call = call i64 @_ZNSt6chrono8durationIlSt5ratioILl1ELl1000000000EEE4zeroEv() #3
  %coerce.dive = getelementptr inbounds %"class.std::chrono::duration", ptr %ref.tmp, i32 0, i32 0
  store i64 %call, ptr %coerce.dive, align 8
  %m_elapsed = getelementptr inbounds %class.stopwatch, ptr %this1, i32 0, i32 1
  call void @llvm.memcpy.p0.p0.i64(ptr align 8 %m_elapsed, ptr align 8 %ref.tmp, i64 8, i1 false)
  ret void
}

; Function Attrs: mustprogress nounwind uwtable
define linkonce_odr hidden void @_ZNSt6chrono10time_pointINS_3_V212steady_clockENS_8durationIlSt5ratioILl1ELl1000000000EEEEEC2Ev(ptr noundef nonnull align 8 dereferenceable(8) %this) unnamed_addr #5 comdat align 2 {
entry:
  %this.addr = alloca ptr, align 8
  store ptr %this, ptr %this.addr, align 8
  %this1 = load ptr, ptr %this.addr, align 8
  %__d = getelementptr inbounds %"class.std::chrono::time_point", ptr %this1, i32 0, i32 0
  %call = call i64 @_ZNSt6chrono8durationIlSt5ratioILl1ELl1000000000EEE4zeroEv() #3
  %coerce.dive = getelementptr inbounds %"class.std::chrono::duration", ptr %__d, i32 0, i32 0
  store i64 %call, ptr %coerce.dive, align 8
  ret void
}

; Function Attrs: mustprogress uwtable
define linkonce_odr hidden void @_ZN9stopwatch5startEv(ptr noundef nonnull align 8 dereferenceable(17) %this) #4 comdat align 2 {
entry:
  %this.addr = alloca ptr, align 8
  %ref.tmp = alloca %"class.std::chrono::time_point", align 8
  store ptr %this, ptr %this.addr, align 8
  %this1 = load ptr, ptr %this.addr, align 8
  %m_running = getelementptr inbounds %class.stopwatch, ptr %this1, i32 0, i32 2
  %0 = load i8, ptr %m_running, align 8
  %tobool = trunc i8 %0 to i1
  br i1 %tobool, label %if.end, label %if.then

if.then:                                          ; preds = %entry
  %call = call i64 @_ZN9stopwatch3getEv()
  %coerce.dive = getelementptr inbounds %"class.std::chrono::time_point", ptr %ref.tmp, i32 0, i32 0
  %coerce.dive2 = getelementptr inbounds %"class.std::chrono::duration", ptr %coerce.dive, i32 0, i32 0
  store i64 %call, ptr %coerce.dive2, align 8
  %m_start = getelementptr inbounds %class.stopwatch, ptr %this1, i32 0, i32 0
  call void @llvm.memcpy.p0.p0.i64(ptr align 8 %m_start, ptr align 8 %ref.tmp, i64 8, i1 false)
  %m_running3 = getelementptr inbounds %class.stopwatch, ptr %this1, i32 0, i32 2
  store i8 1, ptr %m_running3, align 8
  br label %if.end

if.end:                                           ; preds = %if.then, %entry
  ret void
}

; Function Attrs: mustprogress uwtable
define linkonce_odr hidden void @_ZN9stopwatchC2Ev(ptr noundef nonnull align 8 dereferenceable(17) %this) unnamed_addr #4 comdat align 2 {
entry:
  %this.addr = alloca ptr, align 8
  store ptr %this, ptr %this.addr, align 8
  %this1 = load ptr, ptr %this.addr, align 8
  %m_start = getelementptr inbounds %class.stopwatch, ptr %this1, i32 0, i32 0
  call void @_ZNSt6chrono10time_pointINS_3_V212steady_clockENS_8durationIlSt5ratioILl1ELl1000000000EEEEEC2Ev(ptr noundef nonnull align 8 dereferenceable(8) %m_start)
  %m_running = getelementptr inbounds %class.stopwatch, ptr %this1, i32 0, i32 2
  store i8 0, ptr %m_running, align 8
  call void @_ZN9stopwatch5resetEv(ptr noundef nonnull align 8 dereferenceable(17) %this1)
  ret void
}

; Function Attrs: mustprogress uwtable
define hidden void @_ZN7datalog14verbose_actionC2EPKcj(ptr noundef nonnull align 8 dereferenceable(16) %this, ptr noundef %msg, i32 noundef %lvl) unnamed_addr #4 align 2 {
entry:
  %this.addr = alloca ptr, align 8
  %msg.addr = alloca ptr, align 8
  %lvl.addr = alloca i32, align 4
  store ptr %this, ptr %this.addr, align 8
  store ptr %msg, ptr %msg.addr, align 8
  store i32 %lvl, ptr %lvl.addr, align 4
  %this1 = load ptr, ptr %this.addr, align 8
  %m_lvl = getelementptr inbounds %"class.datalog::verbose_action", ptr %this1, i32 0, i32 0
  %0 = load i32, ptr %lvl.addr, align 4
  store i32 %0, ptr %m_lvl, align 8
  %m_sw = getelementptr inbounds %"class.datalog::verbose_action", ptr %this1, i32 0, i32 1
  store ptr null, ptr %m_sw, align 8
  %call = call noundef i32 @_Z19get_verbosity_levelv()
  %m_lvl2 = getelementptr inbounds %"class.datalog::verbose_action", ptr %this1, i32 0, i32 0
  %1 = load i32, ptr %m_lvl2, align 8
  %cmp = icmp uge i32 %call, %1
  br i1 %cmp, label %if.then, label %if.end19

if.then:                                          ; preds = %entry
  %call3 = call noundef zeroext i1 @_Z11is_threadedv()
  br i1 %call3, label %if.then4, label %if.else

if.then4:                                         ; preds = %if.then
  call void @_Z12verbose_lockv()
  %call5 = call noundef nonnull align 8 dereferenceable(8) ptr @_Z14verbose_streamv()
  %2 = load ptr, ptr %msg.addr, align 8
  %call6 = call noundef nonnull align 8 dereferenceable(8) ptr @_ZStlsISt11char_traitsIcEERSt13basic_ostreamIcT_ES5_PKc(ptr noundef nonnull align 8 dereferenceable(8) %call5, ptr noundef %2)
  %call7 = call noundef nonnull align 8 dereferenceable(8) ptr @_ZStlsISt11char_traitsIcEERSt13basic_ostreamIcT_ES5_PKc(ptr noundef nonnull align 8 dereferenceable(8) %call6, ptr noundef @.str)
  %call8 = call noundef nonnull align 8 dereferenceable(8) ptr @_ZNSo5flushEv(ptr noundef nonnull align 8 dereferenceable(8) %call7)
  %call9 = call noalias noundef ptr @_ZN6memory8allocateEm(i64 noundef 24)
  call void @_ZN9stopwatchC2Ev(ptr noundef nonnull align 8 dereferenceable(17) %call9)
  %m_sw10 = getelementptr inbounds %"class.datalog::verbose_action", ptr %this1, i32 0, i32 1
  store ptr %call9, ptr %m_sw10, align 8
  %m_sw11 = getelementptr inbounds %"class.datalog::verbose_action", ptr %this1, i32 0, i32 1
  %3 = load ptr, ptr %m_sw11, align 8
  call void @_ZN9stopwatch5startEv(ptr noundef nonnull align 8 dereferenceable(17) %3)
  call void @_Z14verbose_unlockv()
  br label %if.end

if.else:                                          ; preds = %if.then
  %call12 = call noundef nonnull align 8 dereferenceable(8) ptr @_Z14verbose_streamv()
  %4 = load ptr, ptr %msg.addr, align 8
  %call13 = call noundef nonnull align 8 dereferenceable(8) ptr @_ZStlsISt11char_traitsIcEERSt13basic_ostreamIcT_ES5_PKc(ptr noundef nonnull align 8 dereferenceable(8) %call12, ptr noundef %4)
  %call14 = call noundef nonnull align 8 dereferenceable(8) ptr @_ZStlsISt11char_traitsIcEERSt13basic_ostreamIcT_ES5_PKc(ptr noundef nonnull align 8 dereferenceable(8) %call13, ptr noundef @.str)
  %call15 = call noundef nonnull align 8 dereferenceable(8) ptr @_ZNSo5flushEv(ptr noundef nonnull align 8 dereferenceable(8) %call14)
  %call16 = call noalias noundef ptr @_ZN6memory8allocateEm(i64 noundef 24)
  call void @_ZN9stopwatchC2Ev(ptr noundef nonnull align 8 dereferenceable(17) %call16)
  %m_sw17 = getelementptr inbounds %"class.datalog::verbose_action", ptr %this1, i32 0, i32 1
  store ptr %call16, ptr %m_sw17, align 8
  %m_sw18 = getelementptr inbounds %"class.datalog::verbose_action", ptr %this1, i32 0, i32 1
  %5 = load ptr, ptr %m_sw18, align 8
  call void @_ZN9stopwatch5startEv(ptr noundef nonnull align 8 dereferenceable(17) %5)
  br label %if.end

if.end:                                           ; preds = %if.else, %if.then4
  br label %if.end19

if.end19:                                         ; preds = %if.end, %entry
  ret void
}