; Function Attrs: mustprogress uwtable
define hidden void @_ZN7datalog14verbose_actionC2EPKcj(ptr nocapture noundef nonnull align 8 dereferenceable(16) %this, ptr noundef %msg, i32 noundef %lvl) unnamed_addr #3 align 2 personality ptr @__gxx_personality_v0 {
entry:
  store i32 %lvl, ptr %this, align 8
  %m_sw = getelementptr inbounds i8, ptr %this, i64 8
  store ptr null, ptr %m_sw, align 8
  %call = tail call noundef i32 @_Z19get_verbosity_levelv()
  %0 = load i32, ptr %this, align 8
  %cmp.not = icmp ult i32 %call, %0
  br i1 %cmp.not, label %if.end19, label %if.then

if.then:                                          ; preds = %entry
  %call3 = tail call noundef zeroext i1 @_Z11is_threadedv()
  br i1 %call3, label %_ZN9stopwatch5startEv.exit, label %if.then.i4

_ZN9stopwatch5startEv.exit:                       ; preds = %if.then
  tail call void @_Z12verbose_lockv()
  %call5 = tail call noundef nonnull align 8 dereferenceable(8) ptr @_Z14verbose_streamv()
  %call6 = tail call noundef nonnull align 8 dereferenceable(8) ptr @_ZStlsISt11char_traitsIcEERSt13basic_ostreamIcT_ES5_PKc(ptr noundef nonnull align 8 dereferenceable(8) %call5, ptr noundef %msg)
  %call7 = tail call noundef nonnull align 8 dereferenceable(8) ptr @_ZStlsISt11char_traitsIcEERSt13basic_ostreamIcT_ES5_PKc(ptr noundef nonnull align 8 dereferenceable(8) %call6, ptr noundef nonnull @.str)
  %call8 = tail call noundef nonnull align 8 dereferenceable(8) ptr @_ZNSo5flushEv(ptr noundef nonnull align 8 dereferenceable(8) %call7)
  %call9 = tail call noalias noundef ptr @_ZN6memory8allocateEm(i64 noundef 24)
  tail call void @llvm.memset.p0.i64(ptr noundef nonnull align 8 dereferenceable(17) %call9, i8 0, i64 17, i1 false)
  store ptr %call9, ptr %m_sw, align 8
  %m_running.i = getelementptr inbounds i8, ptr %call9, i64 16
  %call.i.i = tail call i64 @_ZNSt6chrono3_V212steady_clock3nowEv() #21
  store i64 %call.i.i, ptr %call9, align 8
  store i8 1, ptr %m_running.i, align 8
  tail call void @_Z14verbose_unlockv()
  br label %if.end19

if.then.i4:                                       ; preds = %if.then
  %call12 = tail call noundef nonnull align 8 dereferenceable(8) ptr @_Z14verbose_streamv()
  %call13 = tail call noundef nonnull align 8 dereferenceable(8) ptr @_ZStlsISt11char_traitsIcEERSt13basic_ostreamIcT_ES5_PKc(ptr noundef nonnull align 8 dereferenceable(8) %call12, ptr noundef %msg)
  %call14 = tail call noundef nonnull align 8 dereferenceable(8) ptr @_ZStlsISt11char_traitsIcEERSt13basic_ostreamIcT_ES5_PKc(ptr noundef nonnull align 8 dereferenceable(8) %call13, ptr noundef nonnull @.str)
  %call15 = tail call noundef nonnull align 8 dereferenceable(8) ptr @_ZNSo5flushEv(ptr noundef nonnull align 8 dereferenceable(8) %call14)
  %call16 = tail call noalias noundef ptr @_ZN6memory8allocateEm(i64 noundef 24)
  tail call void @llvm.memset.p0.i64(ptr noundef nonnull align 8 dereferenceable(17) %call16, i8 0, i64 17, i1 false)
  store ptr %call16, ptr %m_sw, align 8
  %m_running.i2 = getelementptr inbounds i8, ptr %call16, i64 16
  %call.i.i5 = tail call i64 @_ZNSt6chrono3_V212steady_clock3nowEv() #21
  store i64 %call.i.i5, ptr %call16, align 8
  store i8 1, ptr %m_running.i2, align 8
  br label %if.end19

if.end19:                                         ; preds = %if.then.i4, %_ZN9stopwatch5startEv.exit, %entry
  ret void
}